target datalayout = "e-m:e-p270:32:32-p271:32:32-p272:64:64-i64:64-i128:128-f80:128-n8:16:32:64-S128"
target triple = "x86_64-pc-linux-gnu"

%struct.nstime_t = type { i64, i32 }
%struct._packet_info = type { ptr, ptr, i32, i32, %struct.nstime_t, %struct.nstime_t, %struct.nstime_t, i8, ptr, ptr, ptr, ptr, %struct._address, %struct._address, %struct._address, %struct._address, %struct._address, %struct._address, i32, ptr, i8, [3 x i8], %struct.anon, i32, i32, i32, i32, ptr, i8, ptr, ptr, i16, i16, i32, i32, i16, i32, i32, ptr, ptr, ptr, i8, i8, i16, i16, i16, i32, i16, i16, ptr, ptr, ptr, ptr, ptr, i32, i32 }
%struct._address = type { i32, i32, ptr, ptr }
%struct.anon = type { i8, [3 x i8] }

@hf_smb2_filename = internal global i32 0, align 4
@hf_smb2_filename_len = internal global i32 0, align 4
@hf_smb2_replace_if = internal global i32 0, align 4
@hf_smb2_file_rename_info = internal global i32 0, align 4
@hf_smb2_reserved_random = internal global i32 0, align 4
@hf_smb2_root_directory_mbz = internal global i32 0, align 4
@ett_smb2_file_rename_info = internal global i32 0, align 4
@.str.2277 = private unnamed_addr constant [12 x i8] c" NewName:%s\00", align 1

; Function Attrs: null_pointer_is_valid sspstrong uwtable
define internal i32 @dissect_smb2_file_rename_info(ptr noundef %0, ptr noundef %1, ptr noundef %2, i32 noundef %3, ptr noundef %4) #0 {
  %6 = alloca ptr, align 8
  %7 = alloca ptr, align 8
  %8 = alloca ptr, align 8
  %9 = alloca i32, align 4
  %10 = alloca ptr, align 8
  %11 = alloca ptr, align 8
  %12 = alloca ptr, align 8
  %13 = alloca i32, align 4
  %14 = alloca ptr, align 8
  store ptr %0, ptr %6, align 8
  store ptr %1, ptr %7, align 8
  store ptr %2, ptr %8, align 8
  store i32 %3, ptr %9, align 4
  store ptr %4, ptr %10, align 8
  call void @llvm.lifetime.start.p0(i64 8, ptr %11) #13
  store ptr null, ptr %11, align 8
  call void @llvm.lifetime.start.p0(i64 8, ptr %12) #13
  store ptr null, ptr %12, align 8
  call void @llvm.lifetime.start.p0(i64 4, ptr %13) #13
  %15 = load ptr, ptr %8, align 8
  %16 = icmp ne ptr %15, null
  br i1 %16, label %17, label %26

17:                                               ; preds = %5
  %18 = load ptr, ptr %8, align 8
  %19 = load i32, ptr @hf_smb2_file_rename_info, align 4
  %20 = load ptr, ptr %6, align 8
  %21 = load i32, ptr %9, align 4
  %22 = call ptr @proto_tree_add_item(ptr noundef %18, i32 noundef %19, ptr noundef %20, i32 noundef %21, i32 noundef -1, i32 noundef 0)
  store ptr %22, ptr %11, align 8
  %23 = load ptr, ptr %11, align 8
  %24 = load i32, ptr @ett_smb2_file_rename_info, align 4
  %25 = call ptr @proto_item_add_subtree(ptr noundef %23, i32 noundef %24)
  store ptr %25, ptr %12, align 8
  br label %26

26:                                               ; preds = %17, %5
  %27 = load ptr, ptr %12, align 8
  %28 = load i32, ptr @hf_smb2_replace_if, align 4
  %29 = load ptr, ptr %6, align 8
  %30 = load i32, ptr %9, align 4
  %31 = call ptr @proto_tree_add_item(ptr noundef %27, i32 noundef %28, ptr noundef %29, i32 noundef %30, i32 noundef 1, i32 noundef 0)
  %32 = load i32, ptr %9, align 4
  %33 = add i32 %32, 1
  store i32 %33, ptr %9, align 4
  %34 = load ptr, ptr %12, align 8
  %35 = load i32, ptr @hf_smb2_reserved_random, align 4
  %36 = load ptr, ptr %6, align 8
  %37 = load i32, ptr %9, align 4
  %38 = call ptr @proto_tree_add_item(ptr noundef %34, i32 noundef %35, ptr noundef %36, i32 noundef %37, i32 noundef 7, i32 noundef 0)
  %39 = load i32, ptr %9, align 4
  %40 = add i32 %39, 7
  store i32 %40, ptr %9, align 4
  %41 = load ptr, ptr %12, align 8
  %42 = load i32, ptr @hf_smb2_root_directory_mbz, align 4
  %43 = load ptr, ptr %6, align 8
  %44 = load i32, ptr %9, align 4
  %45 = call ptr @proto_tree_add_item(ptr noundef %41, i32 noundef %42, ptr noundef %43, i32 noundef %44, i32 noundef 8, i32 noundef 0)
  %46 = load i32, ptr %9, align 4
  %47 = add i32 %46, 8
  store i32 %47, ptr %9, align 4
  %48 = load ptr, ptr %6, align 8
  %49 = load i32, ptr %9, align 4
  %50 = call zeroext i16 @tvb_get_letohs(ptr noundef %48, i32 noundef %49)
  %51 = zext i16 %50 to i32
  store i32 %51, ptr %13, align 4
  %52 = load ptr, ptr %12, align 8
  %53 = load i32, ptr @hf_smb2_filename_len, align 4
  %54 = load ptr, ptr %6, align 8
  %55 = load i32, ptr %9, align 4
  %56 = call ptr @proto_tree_add_item(ptr noundef %52, i32 noundef %53, ptr noundef %54, i32 noundef %55, i32 noundef 4, i32 noundef -2147483648)
  %57 = load i32, ptr %9, align 4
  %58 = add i32 %57, 4
  store i32 %58, ptr %9, align 4
  %59 = load i32, ptr %13, align 4
  %60 = icmp ne i32 %59, 0
  br i1 %60, label %61, label %78

61:                                               ; preds = %26
  call void @llvm.lifetime.start.p0(i64 8, ptr %14) #13
  %62 = load ptr, ptr %12, align 8
  %63 = load i32, ptr @hf_smb2_filename, align 4
  %64 = load ptr, ptr %6, align 8
  %65 = load i32, ptr %9, align 4
  %66 = load i32, ptr %13, align 4
  %67 = load ptr, ptr %7, align 8
  %68 = getelementptr inbounds nuw %struct._packet_info, ptr %67, i32 0, i32 51
  %69 = load ptr, ptr %68, align 8
  %70 = call ptr @proto_tree_add_item_ret_display_string(ptr noundef %62, i32 noundef %63, ptr noundef %64, i32 noundef %65, i32 noundef %66, i32 noundef -2147483644, ptr noundef %69, ptr noundef %14)
  %71 = load ptr, ptr %7, align 8
  %72 = getelementptr inbounds nuw %struct._packet_info, ptr %71, i32 0, i32 1
  %73 = load ptr, ptr %72, align 8
  %74 = load ptr, ptr %14, align 8
  call void (ptr, i32, ptr, ...) @col_append_fstr(ptr noundef %73, i32 noundef 25, ptr noundef @.str.2277, ptr noundef %74)
  %75 = load i32, ptr %13, align 4
  %76 = load i32, ptr %9, align 4
  %77 = add i32 %76, %75
  store i32 %77, ptr %9, align 4
  call void @llvm.lifetime.end.p0(i64 8, ptr %14) #13
  br label %78

78:                                               ; preds = %61, %26
  %79 = load i32, ptr %9, align 4
  call void @llvm.lifetime.end.p0(i64 4, ptr %13) #13
  call void @llvm.lifetime.end.p0(i64 8, ptr %12) #13
  call void @llvm.lifetime.end.p0(i64 8, ptr %11) #13
  ret i32 %79
}