; Function Attrs: null_pointer_is_valid sspstrong uwtable
define internal fastcc range(i32 20, 131091) i32 @dissect_smb2_file_rename_info(ptr noundef %0, ptr noundef readonly captures(none) %1, ptr noundef %2, i32 noundef range(i32 0, 65536) %3) unnamed_addr #0 {
  %5 = alloca ptr, align 8
  %.not = icmp eq ptr %2, null
  br i1 %.not, label %11, label %6

6:                                                ; preds = %4
  %7 = load i32, ptr @hf_smb2_file_rename_info, align 4
  %8 = tail call ptr @proto_tree_add_item(ptr noundef nonnull %2, i32 noundef %7, ptr noundef %0, i32 noundef %3, i32 noundef -1, i32 noundef 0)
  %9 = load i32, ptr @ett_smb2_file_rename_info, align 4
  %10 = tail call ptr @proto_item_add_subtree(ptr noundef %8, i32 noundef %9)
  br label %11

11:                                               ; preds = %6, %4
  %.032 = phi ptr [ %10, %6 ], [ null, %4 ]
  %12 = load i32, ptr @hf_smb2_replace_if, align 4
  %13 = tail call ptr @proto_tree_add_item(ptr noundef %.032, i32 noundef %12, ptr noundef %0, i32 noundef %3, i32 noundef 1, i32 noundef 0)
  %14 = add nuw nsw i32 %3, 1
  %15 = load i32, ptr @hf_smb2_reserved_random, align 4
  %16 = tail call ptr @proto_tree_add_item(ptr noundef %.032, i32 noundef %15, ptr noundef %0, i32 noundef %14, i32 noundef 7, i32 noundef 0)
  %17 = add nuw nsw i32 %3, 8
  %18 = load i32, ptr @hf_smb2_root_directory_mbz, align 4
  %19 = tail call ptr @proto_tree_add_item(ptr noundef %.032, i32 noundef %18, ptr noundef %0, i32 noundef %17, i32 noundef 8, i32 noundef 0)
  %20 = add nuw nsw i32 %3, 16
  %21 = tail call zeroext i16 @tvb_get_letohs(ptr noundef %0, i32 noundef %20)
  %22 = load i32, ptr @hf_smb2_filename_len, align 4
  %23 = tail call ptr @proto_tree_add_item(ptr noundef %.032, i32 noundef %22, ptr noundef %0, i32 noundef %20, i32 noundef 4, i32 noundef -2147483648)
  %24 = add nuw nsw i32 %3, 20
  %.not35 = icmp eq i16 %21, 0
  br i1 %.not35, label %35, label %25

25:                                               ; preds = %11
  %26 = zext i16 %21 to i32
  call void @llvm.lifetime.start.p0(i64 8, ptr nonnull %5) #13
  %27 = load i32, ptr @hf_smb2_filename, align 4
  %28 = getelementptr inbounds nuw i8, ptr %1, i64 408
  %29 = load ptr, ptr %28, align 8
  %30 = call ptr @proto_tree_add_item_ret_display_string(ptr noundef %.032, i32 noundef %27, ptr noundef %0, i32 noundef %24, i32 noundef %26, i32 noundef -2147483644, ptr noundef %29, ptr noundef nonnull %5)
  %31 = getelementptr inbounds nuw i8, ptr %1, i64 8
  %32 = load ptr, ptr %31, align 8
  %33 = load ptr, ptr %5, align 8
  call void (ptr, i32, ptr, ...) @col_append_fstr(ptr noundef %32, i32 noundef 25, ptr noundef nonnull @.str.2277, ptr noundef %33)
  %34 = add nuw nsw i32 %24, %26
  call void @llvm.lifetime.end.p0(i64 8, ptr nonnull %5) #13
  br label %35

35:                                               ; preds = %25, %11
  %.0 = phi i32 [ %34, %25 ], [ %24, %11 ]
  ret i32 %.0
}